target datalayout = "e-m:e-p270:32:32-p271:32:32-p272:64:64-i64:64-i128:128-f80:128-n8:16:32:64-S128"
target triple = "x86_64-pc-linux-gnu"

%"class.rocksdb::Random" = type { i32 }

; Function Attrs: inlinehint mustprogress nounwind uwtable
define linkonce_odr noundef zeroext i1 @_ZN7rocksdb14ZSTD_SupportedEv() #1 comdat {
  ret i1 true
}

; Function Attrs: inlinehint mustprogress nounwind uwtable
define linkonce_odr noundef zeroext i1 @_ZN7rocksdb16XPRESS_SupportedEv() #1 comdat {
  ret i1 false
}

; Function Attrs: inlinehint mustprogress nounwind uwtable
define linkonce_odr noundef zeroext i1 @_ZN7rocksdb13LZ4_SupportedEv() #1 comdat {
  ret i1 true
}

; Function Attrs: inlinehint mustprogress nounwind uwtable
define linkonce_odr noundef zeroext i1 @_ZN7rocksdb15BZip2_SupportedEv() #1 comdat {
  ret i1 false
}

; Function Attrs: inlinehint mustprogress nounwind uwtable
define linkonce_odr noundef zeroext i1 @_ZN7rocksdb14Zlib_SupportedEv() #1 comdat {
  ret i1 true
}

; Function Attrs: inlinehint mustprogress nounwind uwtable
define linkonce_odr noundef zeroext i1 @_ZN7rocksdb16Snappy_SupportedEv() #1 comdat {
  ret i1 true
}

; Function Attrs: mustprogress nounwind uwtable
define linkonce_odr noundef i32 @_ZN7rocksdb6Random4NextEv(ptr noundef nonnull align 4 dereferenceable(4) %0) #3 comdat align 2 {
  %2 = alloca ptr, align 8
  %3 = alloca i64, align 8
  store ptr %0, ptr %2, align 8, !tbaa !153
  %4 = load ptr, ptr %2, align 8
  call void @llvm.lifetime.start.p0(i64 8, ptr %3) #4
  %5 = getelementptr inbounds nuw %"class.rocksdb::Random", ptr %4, i32 0, i32 0
  %6 = load i32, ptr %5, align 4, !tbaa !480
  %7 = zext i32 %6 to i64
  %8 = mul i64 %7, 16807
  store i64 %8, ptr %3, align 8, !tbaa !4
  %9 = load i64, ptr %3, align 8, !tbaa !4
  %10 = lshr i64 %9, 31
  %11 = load i64, ptr %3, align 8, !tbaa !4
  %12 = and i64 %11, 2147483647
  %13 = add i64 %10, %12
  %14 = trunc i64 %13 to i32
  %15 = getelementptr inbounds nuw %"class.rocksdb::Random", ptr %4, i32 0, i32 0
  store i32 %14, ptr %15, align 4, !tbaa !480
  %16 = getelementptr inbounds nuw %"class.rocksdb::Random", ptr %4, i32 0, i32 0
  %17 = load i32, ptr %16, align 4, !tbaa !480
  %18 = icmp ugt i32 %17, 2147483647
  br i1 %18, label %19, label %23

19:                                               ; preds = %1
  %20 = getelementptr inbounds nuw %"class.rocksdb::Random", ptr %4, i32 0, i32 0
  %21 = load i32, ptr %20, align 4, !tbaa !480
  %22 = sub i32 %21, 2147483647
  store i32 %22, ptr %20, align 4, !tbaa !480
  br label %23

23:                                               ; preds = %19, %1
  %24 = getelementptr inbounds nuw %"class.rocksdb::Random", ptr %4, i32 0, i32 0
  %25 = load i32, ptr %24, align 4, !tbaa !480
  call void @llvm.lifetime.end.p0(i64 8, ptr %3) #4
  ret i32 %25
}

; Function Attrs: inlinehint mustprogress uwtable
define linkonce_odr noundef zeroext i1 @_ZN7rocksdb24CompressionTypeSupportedENS_15CompressionTypeE(i8 noundef zeroext %0) #8 comdat {
  %2 = alloca i1, align 1
  %3 = alloca i8, align 1
  store i8 %0, ptr %3, align 1, !tbaa !216
  %4 = load i8, ptr %3, align 1, !tbaa !216
  %5 = zext i8 %4 to i32
  switch i32 %5, label %21 [
    i32 0, label %6
    i32 1, label %7
    i32 2, label %9
    i32 3, label %11
    i32 4, label %13
    i32 5, label %15
    i32 6, label %17
    i32 7, label %19
  ]

6:                                                ; preds = %1
  store i1 true, ptr %2, align 1
  br label %22

7:                                                ; preds = %1
  %8 = call noundef zeroext i1 @_ZN7rocksdb16Snappy_SupportedEv()
  store i1 %8, ptr %2, align 1
  br label %22

9:                                                ; preds = %1
  %10 = call noundef zeroext i1 @_ZN7rocksdb14Zlib_SupportedEv()
  store i1 %10, ptr %2, align 1
  br label %22

11:                                               ; preds = %1
  %12 = call noundef zeroext i1 @_ZN7rocksdb15BZip2_SupportedEv()
  store i1 %12, ptr %2, align 1
  br label %22

13:                                               ; preds = %1
  %14 = call noundef zeroext i1 @_ZN7rocksdb13LZ4_SupportedEv()
  store i1 %14, ptr %2, align 1
  br label %22

15:                                               ; preds = %1
  %16 = call noundef zeroext i1 @_ZN7rocksdb13LZ4_SupportedEv()
  store i1 %16, ptr %2, align 1
  br label %22

17:                                               ; preds = %1
  %18 = call noundef zeroext i1 @_ZN7rocksdb16XPRESS_SupportedEv()
  store i1 %18, ptr %2, align 1
  br label %22

19:                                               ; preds = %1
  %20 = call noundef zeroext i1 @_ZN7rocksdb14ZSTD_SupportedEv()
  store i1 %20, ptr %2, align 1
  br label %22

21:                                               ; preds = %1
  store i1 false, ptr %2, align 1
  br label %22

22:                                               ; preds = %21, %19, %17, %15, %13, %11, %9, %7, %6
  %23 = load i1, ptr %2, align 1
  ret i1 %23
}

; Function Attrs: mustprogress uwtable
define linkonce_odr noundef i32 @_ZN7rocksdb6Random7UniformEi(ptr noundef nonnull align 4 dereferenceable(4) %0, i32 noundef %1) #5 comdat align 2 {
  %3 = alloca ptr, align 8
  %4 = alloca i32, align 4
  store ptr %0, ptr %3, align 8, !tbaa !153
  store i32 %1, ptr %4, align 4, !tbaa !52
  %5 = load ptr, ptr %3, align 8
  %6 = call noundef i32 @_ZN7rocksdb6Random4NextEv(ptr noundef nonnull align 4 dereferenceable(4) %5)
  %7 = load i32, ptr %4, align 4, !tbaa !52
  %8 = urem i32 %6, %7
  ret i32 %8
}

; Function Attrs: mustprogress uwtable
define noundef zeroext i8 @_ZN7rocksdb4test21RandomCompressionTypeEPNS_6RandomE(ptr noundef %0) #5 {
  %2 = alloca ptr, align 8
  %3 = alloca i8, align 1
  store ptr %0, ptr %2, align 8, !tbaa !153
  call void @llvm.lifetime.start.p0(i64 1, ptr %3) #4
  %4 = load ptr, ptr %2, align 8, !tbaa !153
  %5 = call noundef i32 @_ZN7rocksdb6Random7UniformEi(ptr noundef nonnull align 4 dereferenceable(4) %4, i32 noundef 6)
  %6 = trunc i32 %5 to i8
  store i8 %6, ptr %3, align 1, !tbaa !216
  br label %7

7:                                                ; preds = %11, %1
  %8 = load i8, ptr %3, align 1, !tbaa !216
  %9 = call noundef zeroext i1 @_ZN7rocksdb24CompressionTypeSupportedENS_15CompressionTypeE(i8 noundef zeroext %8)
  %10 = xor i1 %9, true
  br i1 %10, label %11, label %17

11:                                               ; preds = %7
  %12 = load i8, ptr %3, align 1, !tbaa !216
  %13 = zext i8 %12 to i32
  %14 = add nsw i32 %13, 1
  %15 = srem i32 %14, 6
  %16 = trunc i32 %15 to i8
  store i8 %16, ptr %3, align 1, !tbaa !216
  br label %7, !llvm.loop !218

17:                                               ; preds = %7
  %18 = load i8, ptr %3, align 1, !tbaa !216
  call void @llvm.lifetime.end.p0(i64 1, ptr %3) #4
  ret i8 %18
}