; Function Attrs: mustprogress nofree norecurse nosync nounwind memory(argmem: readwrite) uwtable
define noundef zeroext range(i8 0, 6) i8 @_ZN7rocksdb4test21RandomCompressionTypeEPNS_6RandomE(ptr noundef captures(none) %0) local_unnamed_addr #11 {
  %2 = load i32, ptr %0, align 4, !tbaa !45
  %3 = zext i32 %2 to i64
  %4 = mul nuw nsw i64 %3, 16807
  %5 = lshr i64 %4, 31
  %6 = and i64 %4, 2147483647
  %7 = add nuw nsw i64 %5, %6
  %8 = trunc nuw i64 %7 to i32
  %9 = icmp slt i32 %8, 0
  %10 = add i32 %8, -2147483647
  %spec.select.i.i = select i1 %9, i32 %10, i32 %8
  store i32 %spec.select.i.i, ptr %0, align 4, !tbaa !45
  %11 = urem i32 %spec.select.i.i, 6
  br label %12

12:                                               ; preds = %_ZN7rocksdb24CompressionTypeSupportedENS_15CompressionTypeE.exit, %1
  %.0.in = phi i32 [ %11, %1 ], [ %.zext, %_ZN7rocksdb24CompressionTypeSupportedENS_15CompressionTypeE.exit ]
  %.0 = trunc nuw nsw i32 %.0.in to i8
  switch i8 %.0, label %_ZN7rocksdb24CompressionTypeSupportedENS_15CompressionTypeE.exit [
    i8 0, label %16
    i8 1, label %16
    i8 2, label %16
    i8 7, label %16
    i8 4, label %16
    i8 5, label %16
  ]

_ZN7rocksdb24CompressionTypeSupportedENS_15CompressionTypeE.exit: ; preds = %12
  %13 = trunc nuw nsw i32 %.0.in to i16
  %14 = and i16 %13, 255
  %.lhs.trunc = add nuw nsw i16 %14, 1
  %15 = urem i16 %.lhs.trunc, 6
  %.zext = zext nneg i16 %15 to i32
  br label %12, !llvm.loop !112

16:                                               ; preds = %12, %12, %12, %12, %12, %12
  ret i8 %.0
}